; Function Attrs: nounwind uwtable
define internal range(i32 0, 7) i32 @cff_get_ros(ptr nocapture noundef readonly %0, ptr noundef writeonly %1, ptr noundef writeonly %2, ptr noundef writeonly %3) #4 {
  %5 = getelementptr inbounds i8, ptr %0, i64 1168
  %6 = load ptr, ptr %5, align 8
  %.not = icmp eq ptr %6, null
  br i1 %.not, label %72, label %7

7:                                                ; preds = %4
  %8 = getelementptr inbounds i8, ptr %6, i64 1868
  %9 = load i32, ptr %8, align 4
  %10 = icmp eq i32 %9, 65535
  br i1 %10, label %72, label %11

11:                                               ; preds = %7
  %.not28 = icmp eq ptr %1, null
  br i1 %.not28, label %37, label %12

12:                                               ; preds = %11
  %13 = getelementptr inbounds i8, ptr %6, i64 4984
  %14 = load ptr, ptr %13, align 8
  %.not29 = icmp eq ptr %14, null
  br i1 %.not29, label %15, label %35

15:                                               ; preds = %12
  %16 = icmp ugt i32 %9, 390
  br i1 %16, label %17, label %28

17:                                               ; preds = %15
  %18 = add i32 %9, -391
  %19 = getelementptr inbounds i8, ptr %6, i64 1608
  %20 = load i32, ptr %19, align 8
  %21 = icmp ugt i32 %20, %18
  br i1 %21, label %22, label %cff_index_get_sid_string.exit

22:                                               ; preds = %17
  %23 = getelementptr inbounds i8, ptr %6, i64 1616
  %24 = load ptr, ptr %23, align 8
  %25 = zext i32 %18 to i64
  %26 = getelementptr inbounds ptr, ptr %24, i64 %25
  %27 = load ptr, ptr %26, align 8
  br label %cff_index_get_sid_string.exit

28:                                               ; preds = %15
  %29 = getelementptr inbounds i8, ptr %6, i64 4960
  %30 = load ptr, ptr %29, align 8
  %.not.i = icmp eq ptr %30, null
  br i1 %.not.i, label %cff_index_get_sid_string.exit, label %31

31:                                               ; preds = %28
  %32 = getelementptr inbounds i8, ptr %30, i64 40
  %33 = load ptr, ptr %32, align 8
  %34 = tail call ptr %33(i32 noundef %9) #20
  br label %cff_index_get_sid_string.exit

cff_index_get_sid_string.exit:                    ; preds = %17, %22, %28, %31
  %.0.i = phi ptr [ %34, %31 ], [ null, %28 ], [ %27, %22 ], [ null, %17 ]
  store ptr %.0.i, ptr %13, align 8
  br label %35

35:                                               ; preds = %cff_index_get_sid_string.exit, %12
  %36 = phi ptr [ %.0.i, %cff_index_get_sid_string.exit ], [ %14, %12 ]
  store ptr %36, ptr %1, align 8
  br label %37

37:                                               ; preds = %35, %11
  %.not30 = icmp eq ptr %2, null
  br i1 %.not30, label %67, label %38

38:                                               ; preds = %37
  %39 = getelementptr inbounds i8, ptr %6, i64 4992
  %40 = load ptr, ptr %39, align 8
  %.not31 = icmp eq ptr %40, null
  br i1 %.not31, label %41, label %65

41:                                               ; preds = %38
  %42 = getelementptr inbounds i8, ptr %6, i64 1872
  %43 = load i32, ptr %42, align 8
  %44 = icmp eq i32 %43, 65535
  br i1 %44, label %cff_index_get_sid_string.exit35, label %45

45:                                               ; preds = %41
  %46 = icmp ugt i32 %43, 390
  br i1 %46, label %47, label %58

47:                                               ; preds = %45
  %48 = add i32 %43, -391
  %49 = getelementptr inbounds i8, ptr %6, i64 1608
  %50 = load i32, ptr %49, align 8
  %51 = icmp ugt i32 %50, %48
  br i1 %51, label %52, label %cff_index_get_sid_string.exit35

52:                                               ; preds = %47
  %53 = getelementptr inbounds i8, ptr %6, i64 1616
  %54 = load ptr, ptr %53, align 8
  %55 = zext i32 %48 to i64
  %56 = getelementptr inbounds ptr, ptr %54, i64 %55
  %57 = load ptr, ptr %56, align 8
  br label %cff_index_get_sid_string.exit35

58:                                               ; preds = %45
  %59 = getelementptr inbounds i8, ptr %6, i64 4960
  %60 = load ptr, ptr %59, align 8
  %.not.i33 = icmp eq ptr %60, null
  br i1 %.not.i33, label %cff_index_get_sid_string.exit35, label %61

61:                                               ; preds = %58
  %62 = getelementptr inbounds i8, ptr %60, i64 40
  %63 = load ptr, ptr %62, align 8
  %64 = tail call ptr %63(i32 noundef %43) #20
  br label %cff_index_get_sid_string.exit35

cff_index_get_sid_string.exit35:                  ; preds = %41, %47, %52, %58, %61
  %.0.i34 = phi ptr [ %64, %61 ], [ null, %41 ], [ null, %58 ], [ %57, %52 ], [ null, %47 ]
  store ptr %.0.i34, ptr %39, align 8
  br label %65

65:                                               ; preds = %cff_index_get_sid_string.exit35, %38
  %66 = phi ptr [ %.0.i34, %cff_index_get_sid_string.exit35 ], [ %40, %38 ]
  store ptr %66, ptr %2, align 8
  br label %67

67:                                               ; preds = %65, %37
  %.not32 = icmp eq ptr %3, null
  br i1 %.not32, label %72, label %68

68:                                               ; preds = %67
  %69 = getelementptr inbounds i8, ptr %6, i64 1880
  %70 = load i64, ptr %69, align 8
  %71 = trunc i64 %70 to i32
  store i32 %71, ptr %3, align 4
  br label %72

72:                                               ; preds = %7, %4, %68, %67
  %.0 = phi i32 [ 0, %68 ], [ 0, %67 ], [ 0, %4 ], [ 6, %7 ]
  ret i32 %.0
}